; Function Attrs: nounwind uwtable
define dso_local range(i32 1, 0) i32 @get_partition_parent(i32 noundef %0, i1 noundef zeroext %1) local_unnamed_addr #0 {
  %3 = alloca [2 x %struct.ScanKeyData], align 16
  %4 = tail call ptr @table_open(i32 noundef 2611, i32 noundef 1) #5
  call void @llvm.lifetime.start.p0(i64 144, ptr nonnull %3) #5
  %5 = zext i32 %0 to i64
  call void @ScanKeyInit(ptr noundef nonnull %3, i16 noundef signext 1, i16 noundef zeroext 3, i32 noundef 184, i64 noundef %5) #5
  %6 = getelementptr inbounds nuw i8, ptr %3, i64 72
  call void @ScanKeyInit(ptr noundef nonnull %6, i16 noundef signext 3, i16 noundef zeroext 3, i32 noundef 65, i64 noundef 1) #5
  %7 = call ptr @systable_beginscan(ptr noundef %4, i32 noundef 2680, i1 noundef zeroext true, ptr noundef null, i32 noundef 2, ptr noundef nonnull %3) #5
  %8 = call ptr @systable_getnext(ptr noundef %7) #5
  %.not.i = icmp eq ptr %8, null
  br i1 %.not.i, label %get_partition_parent_worker.exit.thread, label %get_partition_parent_worker.exit

get_partition_parent_worker.exit.thread:          ; preds = %2
  call void @systable_endscan(ptr noundef %7) #5
  call void @llvm.lifetime.end.p0(i64 144, ptr nonnull %3) #5
  br label %18

get_partition_parent_worker.exit:                 ; preds = %2
  %9 = getelementptr i8, ptr %8, i64 16
  %.val.i = load ptr, ptr %9, align 8
  %10 = getelementptr inbounds nuw i8, ptr %.val.i, i64 22
  %11 = load i8, ptr %10, align 2
  %12 = zext i8 %11 to i64
  %13 = getelementptr inbounds nuw i8, ptr %.val.i, i64 %12
  %14 = getelementptr inbounds nuw i8, ptr %13, i64 12
  %15 = load i8, ptr %14, align 4, !range !4, !noundef !5
  %16 = getelementptr inbounds nuw i8, ptr %13, i64 4
  %17 = load i32, ptr %16, align 4
  call void @systable_endscan(ptr noundef %7) #5
  call void @llvm.lifetime.end.p0(i64 144, ptr nonnull %3) #5
  %.not = icmp eq i32 %17, 0
  br i1 %.not, label %18, label %21

18:                                               ; preds = %get_partition_parent_worker.exit.thread, %get_partition_parent_worker.exit
  %19 = call zeroext i1 @errstart_cold(i32 noundef 21, ptr noundef null) #6
  call void @llvm.assume(i1 %19)
  %20 = call i32 (ptr, ...) @errmsg_internal(ptr noundef nonnull @.str, i32 noundef %0) #5
  call void @errfinish(ptr noundef nonnull @.str.1, i32 noundef 65, ptr noundef nonnull @__func__.get_partition_parent) #5
  unreachable

21:                                               ; preds = %get_partition_parent_worker.exit
  %22 = trunc nuw i8 %15 to i1
  %.not7 = xor i1 %22, true
  %brmerge = or i1 %1, %.not7
  br i1 %brmerge, label %26, label %23

23:                                               ; preds = %21
  %24 = call zeroext i1 @errstart_cold(i32 noundef 21, ptr noundef null) #6
  call void @llvm.assume(i1 %24)
  %25 = call i32 (ptr, ...) @errmsg_internal(ptr noundef nonnull @.str.2, i32 noundef %0) #5
  call void @errfinish(ptr noundef nonnull @.str.1, i32 noundef 69, ptr noundef nonnull @__func__.get_partition_parent) #5
  unreachable

26:                                               ; preds = %21
  call void @table_close(ptr noundef %4, i32 noundef 1) #5
  ret i32 %17
}